target datalayout = "e-m:e-p270:32:32-p271:32:32-p272:64:64-i64:64-i128:128-f80:128-n8:16:32:64-S128"
target triple = "x86_64-pc-linux-gnu"

%struct.Curl_hash = type { ptr, ptr, ptr, ptr, i64, i64 }
%struct.Curl_hash_element = type { %struct.Curl_llist_node, ptr, ptr, i64, [1 x i8] }
%struct.Curl_llist_node = type { ptr, ptr, ptr, ptr }

@Curl_cfree = external global ptr, align 8

; Function Attrs: nounwind uwtable
define internal void @hash_element_dtor(ptr noundef %0, ptr noundef %1) #0 {
  %3 = alloca ptr, align 8
  %4 = alloca ptr, align 8
  %5 = alloca ptr, align 8
  %6 = alloca ptr, align 8
  store ptr %0, ptr %3, align 8, !tbaa !11
  store ptr %1, ptr %4, align 8, !tbaa !11
  call void @llvm.lifetime.start.p0(i64 8, ptr %5) #5
  %7 = load ptr, ptr %3, align 8, !tbaa !11
  store ptr %7, ptr %5, align 8, !tbaa !4
  call void @llvm.lifetime.start.p0(i64 8, ptr %6) #5
  %8 = load ptr, ptr %4, align 8, !tbaa !11
  store ptr %8, ptr %6, align 8, !tbaa !25
  %9 = load ptr, ptr %6, align 8, !tbaa !25
  %10 = getelementptr inbounds nuw %struct.Curl_hash_element, ptr %9, i32 0, i32 1
  %11 = load ptr, ptr %10, align 8, !tbaa !31
  %12 = icmp ne ptr %11, null
  br i1 %12, label %13, label %41

13:                                               ; preds = %2
  %14 = load ptr, ptr %6, align 8, !tbaa !25
  %15 = getelementptr inbounds nuw %struct.Curl_hash_element, ptr %14, i32 0, i32 2
  %16 = load ptr, ptr %15, align 8, !tbaa !32
  %17 = icmp ne ptr %16, null
  br i1 %17, label %18, label %31

18:                                               ; preds = %13
  %19 = load ptr, ptr %6, align 8, !tbaa !25
  %20 = getelementptr inbounds nuw %struct.Curl_hash_element, ptr %19, i32 0, i32 2
  %21 = load ptr, ptr %20, align 8, !tbaa !32
  %22 = load ptr, ptr %6, align 8, !tbaa !25
  %23 = getelementptr inbounds nuw %struct.Curl_hash_element, ptr %22, i32 0, i32 4
  %24 = getelementptr inbounds [1 x i8], ptr %23, i64 0, i64 0
  %25 = load ptr, ptr %6, align 8, !tbaa !25
  %26 = getelementptr inbounds nuw %struct.Curl_hash_element, ptr %25, i32 0, i32 3
  %27 = load i64, ptr %26, align 8, !tbaa !27
  %28 = load ptr, ptr %6, align 8, !tbaa !25
  %29 = getelementptr inbounds nuw %struct.Curl_hash_element, ptr %28, i32 0, i32 1
  %30 = load ptr, ptr %29, align 8, !tbaa !31
  call void %21(ptr noundef %24, i64 noundef %27, ptr noundef %30)
  br label %38

31:                                               ; preds = %13
  %32 = load ptr, ptr %5, align 8, !tbaa !4
  %33 = getelementptr inbounds nuw %struct.Curl_hash, ptr %32, i32 0, i32 3
  %34 = load ptr, ptr %33, align 8, !tbaa !17
  %35 = load ptr, ptr %6, align 8, !tbaa !25
  %36 = getelementptr inbounds nuw %struct.Curl_hash_element, ptr %35, i32 0, i32 1
  %37 = load ptr, ptr %36, align 8, !tbaa !31
  call void %34(ptr noundef %37)
  br label %38

38:                                               ; preds = %31, %18
  %39 = load ptr, ptr %6, align 8, !tbaa !25
  %40 = getelementptr inbounds nuw %struct.Curl_hash_element, ptr %39, i32 0, i32 1
  store ptr null, ptr %40, align 8, !tbaa !31
  br label %41

41:                                               ; preds = %38, %2
  %42 = load ptr, ptr %6, align 8, !tbaa !25
  %43 = getelementptr inbounds nuw %struct.Curl_hash_element, ptr %42, i32 0, i32 3
  store i64 0, ptr %43, align 8, !tbaa !27
  %44 = load ptr, ptr @Curl_cfree, align 8, !tbaa !11
  %45 = load ptr, ptr %6, align 8, !tbaa !25
  call void %44(ptr noundef %45)
  call void @llvm.lifetime.end.p0(i64 8, ptr %6) #5
  call void @llvm.lifetime.end.p0(i64 8, ptr %5) #5
  ret void
}