; Function Attrs: nounwind uwtable
define internal void @hash_element_dtor(ptr noundef readonly captures(none) %0, ptr noundef %1) #1 {
  %3 = getelementptr inbounds nuw i8, ptr %1, i64 32
  %4 = load ptr, ptr %3, align 8, !tbaa !24
  %.not = icmp eq ptr %4, null
  br i1 %.not, label %16, label %5

5:                                                ; preds = %2
  %6 = getelementptr inbounds nuw i8, ptr %1, i64 40
  %7 = load ptr, ptr %6, align 8, !tbaa !25
  %.not14 = icmp eq ptr %7, null
  br i1 %.not14, label %12, label %8

8:                                                ; preds = %5
  %9 = getelementptr inbounds nuw i8, ptr %1, i64 56
  %10 = getelementptr inbounds nuw i8, ptr %1, i64 48
  %11 = load i64, ptr %10, align 8, !tbaa !19
  tail call void %7(ptr noundef nonnull %9, i64 noundef %11, ptr noundef nonnull %4) #9
  br label %15

12:                                               ; preds = %5
  %13 = getelementptr inbounds nuw i8, ptr %0, i64 24
  %14 = load ptr, ptr %13, align 8, !tbaa !13
  tail call void %14(ptr noundef nonnull %4) #9
  br label %15

15:                                               ; preds = %12, %8
  store ptr null, ptr %3, align 8, !tbaa !24
  br label %16

16:                                               ; preds = %15, %2
  %17 = getelementptr inbounds nuw i8, ptr %1, i64 48
  store i64 0, ptr %17, align 8, !tbaa !19
  %18 = load ptr, ptr @Curl_cfree, align 8, !tbaa !16
  tail call void %18(ptr noundef nonnull %1) #9
  ret void
}